target datalayout = "e-m:e-p270:32:32-p271:32:32-p272:64:64-i64:64-i128:128-f80:128-n8:16:32:64-S128"
target triple = "x86_64-pc-linux-gnu"

%struct.slurm_conf_t = type { i64, ptr, i16, ptr, ptr, ptr, ptr, ptr, i16, ptr, ptr, ptr, ptr, ptr, ptr, ptr, i16, ptr, ptr, ptr, ptr, i16, ptr, ptr, ptr, i64, ptr, ptr, ptr, ptr, i16, ptr, ptr, i16, i32, ptr, i32, ptr, i32, i32, ptr, ptr, i64, i64, ptr, i16, i16, ptr, i32, i32, ptr, i32, ptr, i32, i16, i16, i16, ptr, i16, i16, ptr, ptr, i32, i16, i16, ptr, i32, i16, ptr, ptr, ptr, ptr, i16, ptr, ptr, ptr, ptr, i32, ptr, ptr, ptr, ptr, i16, i16, ptr, i32, i32, i32, i16, i16, ptr, ptr, i16, ptr, ptr, i32, i32, i32, i32, i32, i64, i32, i32, i16, ptr, ptr, i32, ptr, ptr, ptr, i16, i32, ptr, ptr, i16, ptr, ptr, i32, i16, ptr, ptr, ptr, ptr, i32, i32, i16, i16, i32, ptr, i16, ptr, i32, i32, i32, i32, i32, i32, ptr, i16, ptr, ptr, i32, i16, ptr, i32, i16, i16, ptr, ptr, ptr, i16, ptr, ptr, ptr, ptr, i16, i16, ptr, i16, ptr, i16, ptr, i16, ptr, i16, ptr, ptr, ptr, ptr, i16, ptr, ptr, ptr, i32, ptr, i32, ptr, ptr, i16, ptr, ptr, i32, i16, ptr, ptr, i16, i16, ptr, i16, ptr, ptr, ptr, i32, ptr, i16, i16, ptr, ptr, ptr, ptr, ptr, ptr, ptr, ptr, i16, i32, i16, ptr, ptr, ptr, ptr, i32, ptr, ptr, ptr, i16, ptr, ptr, ptr, i16, ptr, i16, ptr, i16, i16, ptr }
%struct.stat = type { i64, i64, i64, i32, i32, i32, i32, i64, i64, i64, i64, %struct.timespec, %struct.timespec, %struct.timespec, [3 x i64] }
%struct.timespec = type { i64, i64 }

@slurm_conf = external global %struct.slurm_conf_t, align 8
@.str.8 = private unnamed_addr constant [42 x i8] c"jobcomp/script JobCompLoc needs to be set\00", align 1
@jobcomp_script = internal global ptr null, align 8
@.str.77 = private unnamed_addr constant [38 x i8] c"jobcomp/script: failed to stat %s: %m\00", align 1
@.str.78 = private unnamed_addr constant [40 x i8] c"jobcomp/script: %s isn't a regular file\00", align 1
@.str.79 = private unnamed_addr constant [37 x i8] c"jobcomp/script: %s is not executable\00", align 1

; Function Attrs: nounwind uwtable
define internal i32 @_check_script_permissions(ptr noundef %0) #0 {
  %2 = alloca i32, align 4
  %3 = alloca ptr, align 8
  %4 = alloca %struct.stat, align 8
  %5 = alloca i32, align 4
  store ptr %0, ptr %3, align 8
  call void @llvm.lifetime.start.p0(i64 144, ptr %4) #7
  %6 = load ptr, ptr %3, align 8
  %7 = call i32 @stat(ptr noundef %6, ptr noundef %4) #7
  %8 = icmp slt i32 %7, 0
  br i1 %8, label %9, label %12

9:                                                ; preds = %1
  %10 = load ptr, ptr %3, align 8
  %11 = call i32 (ptr, ...) @slurm_error(ptr noundef @.str.77, ptr noundef %10)
  store i32 %11, ptr %2, align 4
  store i32 1, ptr %5, align 4
  br label %28

12:                                               ; preds = %1
  %13 = getelementptr inbounds nuw %struct.stat, ptr %4, i32 0, i32 3
  %14 = load i32, ptr %13, align 8
  %15 = and i32 %14, 32768
  %16 = icmp ne i32 %15, 0
  br i1 %16, label %20, label %17

17:                                               ; preds = %12
  %18 = load ptr, ptr %3, align 8
  %19 = call i32 (ptr, ...) @slurm_error(ptr noundef @.str.78, ptr noundef %18)
  store i32 %19, ptr %2, align 4
  store i32 1, ptr %5, align 4
  br label %28

20:                                               ; preds = %12
  %21 = load ptr, ptr %3, align 8
  %22 = call i32 @access(ptr noundef %21, i32 noundef 1) #7
  %23 = icmp slt i32 %22, 0
  br i1 %23, label %24, label %27

24:                                               ; preds = %20
  %25 = load ptr, ptr %3, align 8
  %26 = call i32 (ptr, ...) @slurm_error(ptr noundef @.str.79, ptr noundef %25)
  store i32 %26, ptr %2, align 4
  store i32 1, ptr %5, align 4
  br label %28

27:                                               ; preds = %20
  store i32 0, ptr %2, align 4
  store i32 1, ptr %5, align 4
  br label %28

28:                                               ; preds = %27, %24, %17, %9
  call void @llvm.lifetime.end.p0(i64 144, ptr %4) #7
  %29 = load i32, ptr %2, align 4
  ret i32 %29
}

; Function Attrs: nounwind uwtable
define dso_local i32 @jobcomp_p_set_location() #0 {
  %1 = alloca i32, align 4
  %2 = alloca ptr, align 8
  %3 = alloca i32, align 4
  call void @llvm.lifetime.start.p0(i64 8, ptr %2) #7
  %4 = load ptr, ptr getelementptr inbounds nuw (%struct.slurm_conf_t, ptr @slurm_conf, i32 0, i32 74), align 8
  store ptr %4, ptr %2, align 8
  %5 = load ptr, ptr %2, align 8
  %6 = icmp eq ptr %5, null
  br i1 %6, label %7, label %9

7:                                                ; preds = %0
  %8 = call i32 (ptr, ...) @slurm_error(ptr noundef @.str.8)
  store i32 %8, ptr %1, align 4
  store i32 1, ptr %3, align 4
  br label %17

9:                                                ; preds = %0
  %10 = load ptr, ptr %2, align 8
  %11 = call i32 @_check_script_permissions(ptr noundef %10)
  %12 = icmp ne i32 %11, 0
  br i1 %12, label %13, label %14

13:                                               ; preds = %9
  store i32 -1, ptr %1, align 4
  store i32 1, ptr %3, align 4
  br label %17

14:                                               ; preds = %9
  call void @slurm_xfree(ptr noundef @jobcomp_script)
  %15 = load ptr, ptr %2, align 8
  %16 = call ptr @slurm_xstrdup(ptr noundef %15)
  store ptr %16, ptr @jobcomp_script, align 8
  store i32 0, ptr %1, align 4
  store i32 1, ptr %3, align 4
  br label %17

17:                                               ; preds = %14, %13, %7
  call void @llvm.lifetime.end.p0(i64 8, ptr %2) #7
  %18 = load i32, ptr %1, align 4
  ret i32 %18
}