; Function Attrs: nounwind uwtable
define dso_local i32 @jobcomp_p_set_location() local_unnamed_addr #0 {
  %1 = alloca %struct.stat, align 8
  %2 = load ptr, ptr getelementptr inbounds nuw (i8, ptr @slurm_conf, i64 512), align 8
  %3 = icmp eq ptr %2, null
  br i1 %3, label %4, label %6

4:                                                ; preds = %0
  %5 = tail call i32 (ptr, ...) @slurm_error(ptr noundef nonnull @.str.8) #10
  br label %19

6:                                                ; preds = %0
  call void @llvm.lifetime.start.p0(i64 144, ptr nonnull %1) #10
  %7 = call i32 @stat(ptr noundef nonnull %2, ptr noundef nonnull %1) #10
  %8 = icmp slt i32 %7, 0
  br i1 %8, label %_check_script_permissions.exit, label %9

9:                                                ; preds = %6
  %10 = getelementptr inbounds nuw i8, ptr %1, i64 24
  %11 = load i32, ptr %10, align 8
  %12 = and i32 %11, 32768
  %.not.i = icmp eq i32 %12, 0
  br i1 %.not.i, label %_check_script_permissions.exit, label %13

13:                                               ; preds = %9
  %14 = tail call i32 @access(ptr noundef nonnull %2, i32 noundef 1) #10
  %15 = icmp slt i32 %14, 0
  br i1 %15, label %_check_script_permissions.exit, label %_check_script_permissions.exit.thread

_check_script_permissions.exit.thread:            ; preds = %13
  call void @llvm.lifetime.end.p0(i64 144, ptr nonnull %1) #10
  br label %17

_check_script_permissions.exit:                   ; preds = %6, %9, %13
  %.str.79.sink.i = phi ptr [ @.str.77, %6 ], [ @.str.78, %9 ], [ @.str.79, %13 ]
  %16 = tail call i32 (ptr, ...) @slurm_error(ptr noundef nonnull %.str.79.sink.i, ptr noundef nonnull %2) #10
  call void @llvm.lifetime.end.p0(i64 144, ptr nonnull %1) #10
  %.not = icmp eq i32 %16, 0
  br i1 %.not, label %17, label %19

17:                                               ; preds = %_check_script_permissions.exit.thread, %_check_script_permissions.exit
  tail call void @slurm_xfree(ptr noundef nonnull @jobcomp_script) #10
  %18 = tail call ptr @slurm_xstrdup(ptr noundef nonnull %2) #10
  store ptr %18, ptr @jobcomp_script, align 8
  br label %19

19:                                               ; preds = %_check_script_permissions.exit, %17, %4
  %.0 = phi i32 [ %5, %4 ], [ 0, %17 ], [ -1, %_check_script_permissions.exit ]
  ret i32 %.0
}